; Function Attrs: nounwind uwtable
define internal void @_gradient_slider_destroy(ptr noundef %0) #0 {
  %2 = load atomic i64, ptr @_gradient_slider_get_type.static_g_define_type_id seq_cst, align 8
  %.not.i.i.i = icmp eq i64 %2, 0
  br i1 %.not.i.i.i, label %3, label %dtgtk_gradient_slider_get_type.exit.i

3:                                                ; preds = %1
  %4 = tail call i32 @g_once_init_enter(ptr noundef nonnull @_gradient_slider_get_type.static_g_define_type_id) #14
  %.not4.i.i.i = icmp eq i32 %4, 0
  br i1 %.not4.i.i.i, label %dtgtk_gradient_slider_get_type.exit.i, label %5

5:                                                ; preds = %3
  %6 = tail call fastcc i64 @_gradient_slider_get_type_once()
  tail call void @g_once_init_leave(ptr noundef nonnull @_gradient_slider_get_type.static_g_define_type_id, i64 noundef %6) #14
  br label %dtgtk_gradient_slider_get_type.exit.i

dtgtk_gradient_slider_get_type.exit.i:            ; preds = %5, %3, %1
  %7 = load i64, ptr @_gradient_slider_get_type.static_g_define_type_id, align 8, !tbaa !6
  %.not.i = icmp eq ptr %0, null
  br i1 %.not.i, label %DTGTK_IS_GRADIENT_SLIDER.exit.thread, label %8

8:                                                ; preds = %dtgtk_gradient_slider_get_type.exit.i
  %9 = load ptr, ptr %0, align 8, !tbaa !113
  %.not10.i = icmp eq ptr %9, null
  br i1 %.not10.i, label %DTGTK_IS_GRADIENT_SLIDER.exit, label %10

10:                                               ; preds = %8
  %11 = load i64, ptr %9, align 8, !tbaa !107
  %12 = icmp eq i64 %11, %7
  br i1 %12, label %DTGTK_IS_GRADIENT_SLIDER.exit.thread20, label %DTGTK_IS_GRADIENT_SLIDER.exit

DTGTK_IS_GRADIENT_SLIDER.exit:                    ; preds = %8, %10
  %13 = tail call i32 @g_type_check_instance_is_a(ptr noundef nonnull readonly %0, i64 noundef %7) #17
  %.not = icmp eq i32 %13, 0
  br i1 %.not, label %DTGTK_IS_GRADIENT_SLIDER.exit.thread, label %DTGTK_IS_GRADIENT_SLIDER.exit.thread20, !prof !114

DTGTK_IS_GRADIENT_SLIDER.exit.thread:             ; preds = %dtgtk_gradient_slider_get_type.exit.i, %DTGTK_IS_GRADIENT_SLIDER.exit
  tail call void @g_return_if_fail_warning(ptr noundef null, ptr noundef nonnull @__func__._gradient_slider_destroy, ptr noundef nonnull @.str.9) #14
  br label %35

DTGTK_IS_GRADIENT_SLIDER.exit.thread20:           ; preds = %10, %DTGTK_IS_GRADIENT_SLIDER.exit
  %14 = load atomic i64, ptr @_gradient_slider_get_type.static_g_define_type_id seq_cst, align 8
  %.not.i.i.i15 = icmp eq i64 %14, 0
  br i1 %.not.i.i.i15, label %15, label %DTGTK_GRADIENT_SLIDER.exit

15:                                               ; preds = %DTGTK_IS_GRADIENT_SLIDER.exit.thread20
  %16 = tail call i32 @g_once_init_enter(ptr noundef nonnull @_gradient_slider_get_type.static_g_define_type_id) #14
  %.not4.i.i.i17 = icmp eq i32 %16, 0
  br i1 %.not4.i.i.i17, label %DTGTK_GRADIENT_SLIDER.exit, label %17

17:                                               ; preds = %15
  %18 = tail call fastcc i64 @_gradient_slider_get_type_once()
  tail call void @g_once_init_leave(ptr noundef nonnull @_gradient_slider_get_type.static_g_define_type_id, i64 noundef %18) #14
  br label %DTGTK_GRADIENT_SLIDER.exit

DTGTK_GRADIENT_SLIDER.exit:                       ; preds = %DTGTK_IS_GRADIENT_SLIDER.exit.thread20, %15, %17
  %19 = load i64, ptr @_gradient_slider_get_type.static_g_define_type_id, align 8, !tbaa !6
  %20 = tail call ptr @g_type_check_instance_cast(ptr noundef nonnull %0, i64 noundef %19) #14
  %21 = getelementptr inbounds nuw i8, ptr %20, i64 336
  %22 = load i32, ptr %21, align 8, !tbaa !31
  %.not13 = icmp eq i32 %22, 0
  br i1 %.not13, label %25, label %23

23:                                               ; preds = %DTGTK_GRADIENT_SLIDER.exit
  %24 = tail call i32 @g_source_remove(i32 noundef %22) #14
  br label %25

25:                                               ; preds = %23, %DTGTK_GRADIENT_SLIDER.exit
  store i32 0, ptr %21, align 8, !tbaa !31
  %26 = getelementptr inbounds nuw i8, ptr %20, i64 40
  %27 = load ptr, ptr %26, align 8, !tbaa !42
  %.not14 = icmp eq ptr %27, null
  br i1 %.not14, label %29, label %28

28:                                               ; preds = %25
  tail call void @g_list_free_full(ptr noundef nonnull %27, ptr noundef nonnull @g_free) #14
  br label %29

29:                                               ; preds = %28, %25
  store ptr null, ptr %26, align 8, !tbaa !42
  %30 = load ptr, ptr @_gradient_slider_parent_class, align 8, !tbaa !90
  %31 = tail call i64 @gtk_widget_get_type() #15
  %32 = tail call ptr @g_type_check_class_cast(ptr noundef %30, i64 noundef %31) #14
  %33 = getelementptr inbounds nuw i8, ptr %32, i64 152
  %34 = load ptr, ptr %33, align 8, !tbaa !99
  tail call void %34(ptr noundef nonnull %0) #14
  br label %35

35:                                               ; preds = %29, %DTGTK_IS_GRADIENT_SLIDER.exit.thread
  ret void
}